target datalayout = "e-m:e-p270:32:32-p271:32:32-p272:64:64-i64:64-i128:128-f80:128-n8:16:32:64-S128"
target triple = "x86_64-pc-linux-gnu"

%class.DebugInformationRecorder = type <{ ptr, i8, [7 x i8], ptr, ptr, ptr, ptr, ptr, ptr, i32, i32, i32, [4 x i8] }>
%class.PcDesc = type { i32, i32, i32, i32 }

@g_assert_poison = external global ptr, align 8
@.str.4 = private unnamed_addr constant [34 x i8] c"guarantee(_pcs_length > 0) failed\00", align 1
@.str.6 = private unnamed_addr constant [40 x i8] c"src/hotspot/share/code/debugInfoRec.hpp\00", align 1
@.str.7 = private unnamed_addr constant [37 x i8] c"a safepoint must be declared already\00", align 1
@.str.8 = private unnamed_addr constant [34 x i8] c"guarantee(_pcs_length > 1) failed\00", align 1

; Function Attrs: mustprogress nounwind uwtable
define linkonce_odr hidden void @_ZN6PcDesc13set_pc_offsetEi(ptr noundef nonnull align 4 dereferenceable(16) %0, i32 noundef %1) #1 comdat align 2 {
  %3 = alloca ptr, align 8
  %4 = alloca i32, align 4
  store ptr %0, ptr %3, align 8
  store i32 %1, ptr %4, align 4
  %5 = load ptr, ptr %3, align 8
  %6 = load i32, ptr %4, align 4
  %7 = getelementptr inbounds %class.PcDesc, ptr %5, i32 0, i32 0
  store i32 %6, ptr %7, align 4
  ret void
}

; Function Attrs: mustprogress nounwind uwtable
define linkonce_odr hidden noundef zeroext i1 @_ZN6PcDesc12is_same_infoEPKS_(ptr noundef nonnull align 4 dereferenceable(16) %0, ptr noundef %1) #1 comdat align 2 {
  %3 = alloca ptr, align 8
  %4 = alloca ptr, align 8
  store ptr %0, ptr %3, align 8
  store ptr %1, ptr %4, align 8
  %5 = load ptr, ptr %3, align 8
  %6 = getelementptr inbounds %class.PcDesc, ptr %5, i32 0, i32 1
  %7 = load i32, ptr %6, align 4
  %8 = load ptr, ptr %4, align 8
  %9 = getelementptr inbounds %class.PcDesc, ptr %8, i32 0, i32 1
  %10 = load i32, ptr %9, align 4
  %11 = icmp eq i32 %7, %10
  br i1 %11, label %12, label %26

12:                                               ; preds = %2
  %13 = getelementptr inbounds %class.PcDesc, ptr %5, i32 0, i32 2
  %14 = load i32, ptr %13, align 4
  %15 = load ptr, ptr %4, align 8
  %16 = getelementptr inbounds %class.PcDesc, ptr %15, i32 0, i32 2
  %17 = load i32, ptr %16, align 4
  %18 = icmp eq i32 %14, %17
  br i1 %18, label %19, label %26

19:                                               ; preds = %12
  %20 = getelementptr inbounds %class.PcDesc, ptr %5, i32 0, i32 3
  %21 = load i32, ptr %20, align 4
  %22 = load ptr, ptr %4, align 8
  %23 = getelementptr inbounds %class.PcDesc, ptr %22, i32 0, i32 3
  %24 = load i32, ptr %23, align 4
  %25 = icmp eq i32 %21, %24
  br label %26

26:                                               ; preds = %19, %12, %2
  %27 = phi i1 [ false, %12 ], [ false, %2 ], [ %25, %19 ]
  ret i1 %27
}

; Function Attrs: mustprogress nounwind uwtable
define linkonce_odr hidden noundef i32 @_ZNK6PcDesc9pc_offsetEv(ptr noundef nonnull align 4 dereferenceable(16) %0) #1 comdat align 2 {
  %2 = alloca ptr, align 8
  store ptr %0, ptr %2, align 8
  %3 = load ptr, ptr %2, align 8
  %4 = getelementptr inbounds %class.PcDesc, ptr %3, i32 0, i32 0
  %5 = load i32, ptr %4, align 4
  ret i32 %5
}

; Function Attrs: mustprogress nounwind uwtable
define linkonce_odr hidden noundef ptr @_ZN24DebugInformationRecorder7prev_pcEv(ptr noundef nonnull align 8 dereferenceable(76) %0) #1 comdat align 2 {
  %2 = alloca ptr, align 8
  store ptr %0, ptr %2, align 8
  %3 = load ptr, ptr %2, align 8
  br label %4

4:                                                ; preds = %1
  %5 = getelementptr inbounds %class.DebugInformationRecorder, ptr %3, i32 0, i32 10
  %6 = load i32, ptr %5, align 4
  %7 = icmp sgt i32 %6, 1
  br i1 %7, label %10, label %8

8:                                                ; preds = %4
  %9 = load ptr, ptr @g_assert_poison, align 8
  store i8 88, ptr %9, align 1
  call void (ptr, i32, ptr, ptr, ...) @_Z15report_vm_errorPKciS0_S0_z(ptr noundef @.str.6, i32 noundef 196, ptr noundef @.str.8, ptr noundef @.str.7) #8
  unreachable

10:                                               ; preds = %4
  br label %11

11:                                               ; preds = %10
  %12 = getelementptr inbounds %class.DebugInformationRecorder, ptr %3, i32 0, i32 8
  %13 = load ptr, ptr %12, align 8
  %14 = getelementptr inbounds %class.DebugInformationRecorder, ptr %3, i32 0, i32 10
  %15 = load i32, ptr %14, align 4
  %16 = sub nsw i32 %15, 2
  %17 = sext i32 %16 to i64
  %18 = getelementptr inbounds %class.PcDesc, ptr %13, i64 %17
  ret ptr %18
}

; Function Attrs: mustprogress nounwind uwtable
define linkonce_odr hidden noundef ptr @_ZN24DebugInformationRecorder7last_pcEv(ptr noundef nonnull align 8 dereferenceable(76) %0) #1 comdat align 2 {
  %2 = alloca ptr, align 8
  store ptr %0, ptr %2, align 8
  %3 = load ptr, ptr %2, align 8
  br label %4

4:                                                ; preds = %1
  %5 = getelementptr inbounds %class.DebugInformationRecorder, ptr %3, i32 0, i32 10
  %6 = load i32, ptr %5, align 4
  %7 = icmp sgt i32 %6, 0
  br i1 %7, label %10, label %8

8:                                                ; preds = %4
  %9 = load ptr, ptr @g_assert_poison, align 8
  store i8 88, ptr %9, align 1
  call void (ptr, i32, ptr, ptr, ...) @_Z15report_vm_errorPKciS0_S0_z(ptr noundef @.str.6, i32 noundef 192, ptr noundef @.str.4, ptr noundef @.str.7) #8
  unreachable

10:                                               ; preds = %4
  br label %11

11:                                               ; preds = %10
  %12 = getelementptr inbounds %class.DebugInformationRecorder, ptr %3, i32 0, i32 8
  %13 = load ptr, ptr %12, align 8
  %14 = getelementptr inbounds %class.DebugInformationRecorder, ptr %3, i32 0, i32 10
  %15 = load i32, ptr %14, align 4
  %16 = sub nsw i32 %15, 1
  %17 = sext i32 %16 to i64
  %18 = getelementptr inbounds %class.PcDesc, ptr %13, i64 %17
  ret ptr %18
}

; Function Attrs: mustprogress nounwind uwtable
define linkonce_odr hidden noundef zeroext i1 @_ZN24DebugInformationRecorder24recording_non_safepointsEv(ptr noundef nonnull align 8 dereferenceable(76) %0) #1 comdat align 2 {
  %2 = alloca ptr, align 8
  store ptr %0, ptr %2, align 8
  %3 = load ptr, ptr %2, align 8
  %4 = getelementptr inbounds %class.DebugInformationRecorder, ptr %3, i32 0, i32 1
  %5 = load i8, ptr %4, align 8
  %6 = trunc i8 %5 to i1
  ret i1 %6
}

; Function Attrs: mustprogress nounwind uwtable
define hidden void @_ZN24DebugInformationRecorder10end_scopesEib(ptr noundef nonnull align 8 dereferenceable(76) %0, i32 noundef %1, i1 noundef zeroext %2) #1 align 2 {
  %4 = alloca ptr, align 8
  %5 = alloca i32, align 4
  %6 = alloca i8, align 1
  %7 = alloca ptr, align 8
  %8 = alloca ptr, align 8
  store ptr %0, ptr %4, align 8
  store i32 %1, ptr %5, align 4
  %9 = zext i1 %2 to i8
  store i8 %9, ptr %6, align 1
  %10 = load ptr, ptr %4, align 8
  %11 = getelementptr inbounds %class.DebugInformationRecorder, ptr %10, i32 0, i32 10
  %12 = load i32, ptr %11, align 4
  %13 = icmp sge i32 %12, 2
  br i1 %13, label %14, label %35

14:                                               ; preds = %3
  %15 = call noundef zeroext i1 @_ZN24DebugInformationRecorder24recording_non_safepointsEv(ptr noundef nonnull align 8 dereferenceable(76) %10)
  br i1 %15, label %16, label %35

16:                                               ; preds = %14
  %17 = call noundef ptr @_ZN24DebugInformationRecorder7last_pcEv(ptr noundef nonnull align 8 dereferenceable(76) %10)
  store ptr %17, ptr %7, align 8
  %18 = call noundef ptr @_ZN24DebugInformationRecorder7prev_pcEv(ptr noundef nonnull align 8 dereferenceable(76) %10)
  store ptr %18, ptr %8, align 8
  %19 = getelementptr inbounds %class.DebugInformationRecorder, ptr %10, i32 0, i32 11
  %20 = load i32, ptr %19, align 8
  %21 = load ptr, ptr %8, align 8
  %22 = call noundef i32 @_ZNK6PcDesc9pc_offsetEv(ptr noundef nonnull align 4 dereferenceable(16) %21)
  %23 = icmp slt i32 %20, %22
  br i1 %23, label %24, label %34

24:                                               ; preds = %16
  %25 = load ptr, ptr %8, align 8
  %26 = load ptr, ptr %7, align 8
  %27 = call noundef zeroext i1 @_ZN6PcDesc12is_same_infoEPKS_(ptr noundef nonnull align 4 dereferenceable(16) %25, ptr noundef %26)
  br i1 %27, label %28, label %34

28:                                               ; preds = %24
  %29 = load ptr, ptr %8, align 8
  %30 = load i32, ptr %5, align 4
  call void @_ZN6PcDesc13set_pc_offsetEi(ptr noundef nonnull align 4 dereferenceable(16) %29, i32 noundef %30)
  %31 = getelementptr inbounds %class.DebugInformationRecorder, ptr %10, i32 0, i32 10
  %32 = load i32, ptr %31, align 4
  %33 = sub nsw i32 %32, 1
  store i32 %33, ptr %31, align 4
  br label %34

34:                                               ; preds = %28, %24, %16
  br label %35

35:                                               ; preds = %34, %14, %3
  %36 = load i8, ptr %6, align 1
  %37 = trunc i8 %36 to i1
  br i1 %37, label %38, label %41

38:                                               ; preds = %35
  %39 = load i32, ptr %5, align 4
  %40 = getelementptr inbounds %class.DebugInformationRecorder, ptr %10, i32 0, i32 11
  store i32 %39, ptr %40, align 8
  br label %41

41:                                               ; preds = %38, %35
  ret void
}