; Function Attrs: mustprogress nofree norecurse nosync nounwind willreturn memory(readwrite, inaccessiblemem: none) uwtable
define hidden void @_ZN24DebugInformationRecorder10end_scopesEib(ptr nocapture noundef nonnull align 8 dereferenceable(76) %0, i32 noundef %1, i1 noundef zeroext %2) local_unnamed_addr #4 align 2 {
  %4 = getelementptr inbounds i8, ptr %0, i64 68
  %5 = load i32, ptr %4, align 4
  %6 = icmp sgt i32 %5, 1
  br i1 %6, label %7, label %_ZN6PcDesc12is_same_infoEPKS_.exit.thread

7:                                                ; preds = %3
  %8 = getelementptr inbounds i8, ptr %0, i64 8
  %9 = load i8, ptr %8, align 8
  %10 = trunc i8 %9 to i1
  br i1 %10, label %_ZN24DebugInformationRecorder7prev_pcEv.exit, label %_ZN6PcDesc12is_same_infoEPKS_.exit.thread

_ZN24DebugInformationRecorder7prev_pcEv.exit:     ; preds = %7
  %11 = getelementptr inbounds i8, ptr %0, i64 56
  %12 = load ptr, ptr %11, align 8
  %13 = zext nneg i32 %5 to i64
  %14 = getelementptr %class.PcDesc, ptr %12, i64 %13
  %15 = getelementptr i8, ptr %14, i64 -32
  %16 = getelementptr inbounds i8, ptr %0, i64 72
  %17 = load i32, ptr %16, align 8
  %18 = load i32, ptr %15, align 4
  %19 = icmp slt i32 %17, %18
  br i1 %19, label %20, label %_ZN6PcDesc12is_same_infoEPKS_.exit.thread

20:                                               ; preds = %_ZN24DebugInformationRecorder7prev_pcEv.exit
  %21 = getelementptr i8, ptr %14, i64 -28
  %22 = load i32, ptr %21, align 4
  %23 = getelementptr i8, ptr %14, i64 -12
  %24 = load i32, ptr %23, align 4
  %25 = icmp eq i32 %22, %24
  br i1 %25, label %26, label %_ZN6PcDesc12is_same_infoEPKS_.exit.thread

26:                                               ; preds = %20
  %27 = getelementptr i8, ptr %14, i64 -24
  %28 = load i32, ptr %27, align 4
  %29 = getelementptr i8, ptr %14, i64 -8
  %30 = load i32, ptr %29, align 4
  %31 = icmp eq i32 %28, %30
  br i1 %31, label %_ZN6PcDesc12is_same_infoEPKS_.exit, label %_ZN6PcDesc12is_same_infoEPKS_.exit.thread

_ZN6PcDesc12is_same_infoEPKS_.exit:               ; preds = %26
  %32 = getelementptr i8, ptr %14, i64 -20
  %33 = load i32, ptr %32, align 4
  %34 = getelementptr i8, ptr %14, i64 -4
  %35 = load i32, ptr %34, align 4
  %36 = icmp eq i32 %33, %35
  br i1 %36, label %37, label %_ZN6PcDesc12is_same_infoEPKS_.exit.thread

37:                                               ; preds = %_ZN6PcDesc12is_same_infoEPKS_.exit
  store i32 %1, ptr %15, align 4
  %38 = load i32, ptr %4, align 4
  %39 = add nsw i32 %38, -1
  store i32 %39, ptr %4, align 4
  br label %_ZN6PcDesc12is_same_infoEPKS_.exit.thread

_ZN6PcDesc12is_same_infoEPKS_.exit.thread:        ; preds = %20, %26, %_ZN24DebugInformationRecorder7prev_pcEv.exit, %_ZN6PcDesc12is_same_infoEPKS_.exit, %37, %7, %3
  br i1 %2, label %40, label %42

40:                                               ; preds = %_ZN6PcDesc12is_same_infoEPKS_.exit.thread
  %41 = getelementptr inbounds i8, ptr %0, i64 72
  store i32 %1, ptr %41, align 8
  br label %42

42:                                               ; preds = %40, %_ZN6PcDesc12is_same_infoEPKS_.exit.thread
  ret void
}